target datalayout = "e-m:e-p270:32:32-p271:32:32-p272:64:64-i64:64-i128:128-f80:128-n8:16:32:64-S128"
target triple = "x86_64-pc-linux-gnu"

%struct.H5FL_reg_head_t = type { i8, i32, i32, ptr, i64, ptr }
%struct.H5C_cache_entry_t = type { ptr, i64, i64, ptr, i8, ptr, i8, i8, i8, i8, i32, i8, i8, i8, i8, i8, i32, ptr, i32, i32, i32, i32, i32, i8, i8, ptr, ptr, ptr, ptr, ptr, ptr, i8, i32, i8, i64, ptr, i64, i64, i32, i8, i32, i32, i8, ptr, ptr, ptr }
%struct.H5O_chunk_proxy_t = type { %struct.H5C_cache_entry_t, ptr, ptr, i32, ptr }

@H5_H5O_chunk_proxy_t_reg_free_list = global %struct.H5FL_reg_head_t { i8 0, i32 0, i32 0, ptr @.str, i64 280, ptr null }, align 8
@.str.1 = private unnamed_addr constant [102 x i8] c"generated/home/dtcxzyw/WorkSpace/Projects/compilers/llvm-opt-benchmark/bench/hdf5/hdf5/src/H5Ochunk.c\00", align 1
@H5E_OHDR_g = external global i64, align 8
@H5E_CANTDEC_g = external global i64, align 8
@.str.9 = private unnamed_addr constant [49 x i8] c"can't decrement reference count on object header\00", align 1
@__func__.H5O__chunk_dest = private unnamed_addr constant [16 x i8] c"H5O__chunk_dest\00", align 1

; Function Attrs: nounwind uwtable
define i32 @H5O__chunk_dest(ptr noundef %0) #0 {
  %2 = alloca ptr, align 8
  %3 = alloca i32, align 4
  %4 = alloca i8, align 1
  store ptr %0, ptr %2, align 8
  store i32 0, ptr %3, align 4
  store i8 0, ptr %4, align 1
  %5 = load ptr, ptr %2, align 8
  %6 = getelementptr inbounds %struct.H5O_chunk_proxy_t, ptr %5, i32 0, i32 2
  %7 = load ptr, ptr %6, align 8
  %8 = call i32 @H5O__dec_rc(ptr noundef %7)
  %9 = icmp slt i32 %8, 0
  br i1 %9, label %10, label %25

10:                                               ; preds = %1
  br label %11

11:                                               ; preds = %10
  br label %12

12:                                               ; preds = %11
  br label %13

13:                                               ; preds = %12
  %14 = load i64, ptr @H5E_OHDR_g, align 8
  %15 = load i64, ptr @H5E_CANTDEC_g, align 8
  %16 = call i32 (ptr, ptr, i32, i64, i64, ptr, ...) @H5E_printf_stack(ptr noundef @.str.1, ptr noundef @__func__.H5O__chunk_dest, i32 noundef 393, i64 noundef %14, i64 noundef %15, ptr noundef @.str.9)
  br label %17

17:                                               ; preds = %13
  store i8 1, ptr %4, align 1
  %18 = load i8, ptr %4, align 1
  %19 = trunc i8 %18 to i1
  %20 = zext i1 %19 to i8
  store i8 %20, ptr %4, align 1
  br label %21

21:                                               ; preds = %17
  br label %22

22:                                               ; preds = %21
  store i32 -1, ptr %3, align 4
  br label %26

23:                                               ; No predecessors!
  br label %24

24:                                               ; preds = %23
  br label %25

25:                                               ; preds = %24, %1
  br label %26

26:                                               ; preds = %25, %22
  %27 = load ptr, ptr %2, align 8
  %28 = call ptr @H5FL_reg_free(ptr noundef @H5_H5O_chunk_proxy_t_reg_free_list, ptr noundef %27)
  store ptr %28, ptr %2, align 8
  %29 = load i32, ptr %3, align 4
  ret i32 %29
}