; Function Attrs: nounwind uwtable
define range(i32 -1, 1) i32 @H5O__chunk_dest(ptr noundef %0) local_unnamed_addr #0 {
  %2 = getelementptr inbounds i8, ptr %0, i64 256
  %3 = load ptr, ptr %2, align 8
  %4 = tail call i32 @H5O__dec_rc(ptr noundef %3) #3
  %5 = icmp slt i32 %4, 0
  br i1 %5, label %6, label %10

6:                                                ; preds = %1
  %7 = load i64, ptr @H5E_OHDR_g, align 8
  %8 = load i64, ptr @H5E_CANTDEC_g, align 8
  %9 = tail call i32 (ptr, ptr, i32, i64, i64, ptr, ...) @H5E_printf_stack(ptr noundef nonnull @.str.1, ptr noundef nonnull @__func__.H5O__chunk_dest, i32 noundef 393, i64 noundef %7, i64 noundef %8, ptr noundef nonnull @.str.9) #3
  br label %10

10:                                               ; preds = %1, %6
  %.0 = phi i32 [ -1, %6 ], [ 0, %1 ]
  %11 = tail call ptr @H5FL_reg_free(ptr noundef nonnull @H5_H5O_chunk_proxy_t_reg_free_list, ptr noundef nonnull %0) #3
  ret i32 %.0
}